; Function Attrs: null_pointer_is_valid sspstrong uwtable
define internal fastcc range(i32 13, 15) i32 @dissect_subrate_req(ptr noundef %0, ptr noundef %1, i32 noundef range(i32 3, 5) %2) unnamed_addr #0 {
  %4 = load i32, ptr @hf_control_subrate_factor_min, align 4
  %5 = tail call ptr @proto_tree_add_item(ptr noundef %1, i32 noundef %4, ptr noundef %0, i32 noundef %2, i32 noundef 2, i32 noundef -2147483648)
  %6 = add nuw nsw i32 %2, 2
  %7 = load i32, ptr @hf_control_subrate_factor_max, align 4
  %8 = tail call ptr @proto_tree_add_item(ptr noundef %1, i32 noundef %7, ptr noundef %0, i32 noundef %6, i32 noundef 2, i32 noundef -2147483648)
  %9 = add nuw nsw i32 %2, 4
  %10 = load i32, ptr @hf_control_max_latency, align 4
  %11 = tail call ptr @proto_tree_add_item(ptr noundef %1, i32 noundef %10, ptr noundef %0, i32 noundef %9, i32 noundef 2, i32 noundef -2147483648)
  %12 = add nuw nsw i32 %2, 6
  %13 = load i32, ptr @hf_control_continuation_number, align 4
  %14 = tail call ptr @proto_tree_add_item(ptr noundef %1, i32 noundef %13, ptr noundef %0, i32 noundef %12, i32 noundef 2, i32 noundef -2147483648)
  %15 = or disjoint i32 %2, 8
  %16 = load i32, ptr @hf_control_timeout, align 4
  %17 = tail call ptr @proto_tree_add_item(ptr noundef %1, i32 noundef %16, ptr noundef %0, i32 noundef %15, i32 noundef 2, i32 noundef -2147483648)
  %18 = add nuw nsw i32 %2, 10
  ret i32 %18
}